(lp1
S'http://www.indeed.com/rc/clk?jk=94838c1b25655416'
p2
aS'http://www.indeed.com/rc/clk?jk=3938c66b4625d517'
p3
aS'http://www.indeed.com/rc/clk?jk=992d10265bf35889'
p4
aS'http://www.indeed.com/rc/clk?jk=65ffa2d5bc754237'
p5
aS'http://www.indeed.com/rc/clk?jk=049854645ffd3cb1'
p6
aS'http://www.indeed.com/rc/clk?jk=ff3878e7693f524b'
p7
aS'http://www.indeed.com/rc/clk?jk=49633c0808206da2'
p8
aS'http://www.indeed.com/rc/clk?jk=6a40024a8f445572'
p9
aS'http://www.indeed.com/rc/clk?jk=ed1161a795487c36'
p10
aS'http://www.indeed.com/rc/clk?jk=5ffa899e7d06126b'
p11
aS'http://www.indeed.com/rc/clk?jk=eb59287873e7a881'
p12
aS'http://www.indeed.com/rc/clk?jk=771b896d7cafb4e9'
p13
aS'http://www.indeed.com/rc/clk?jk=ef712ba2135b5967'
p14
aS'http://www.indeed.com/rc/clk?jk=b5b17a6181aaad6e'
p15
aS'http://www.indeed.com/rc/clk?jk=80d0f2bd71944313'
p16
aS'http://www.indeed.com/rc/clk?jk=4027410824e4ae3b'
p17
aS'http://www.indeed.com/rc/clk?jk=d5654211d1b05afa'
p18
aS'http://www.indeed.com/rc/clk?jk=915ba8800262a522'
p19
aS'http://www.indeed.com/rc/clk?jk=206fa6205909f935'
p20
aS'http://www.indeed.com/rc/clk?jk=21958d9f9b62a344'
p21
aS'http://www.indeed.com/rc/clk?jk=f1c835d1c62bef19'
p22
aS'http://www.indeed.com/rc/clk?jk=848bade73d955d3e'
p23
aS'http://www.indeed.com/rc/clk?jk=5ba510cf2ad9d9b2'
p24
aS'http://www.indeed.com/rc/clk?jk=11654fb89f964701'
p25
aS'http://www.indeed.com/rc/clk?jk=5b248b437d69b1bb'
p26
aS'http://www.indeed.com/rc/clk?jk=8be676eb250a55f5'
p27
aS'http://www.indeed.com/rc/clk?jk=2307cc71bbc3e349'
p28
aS'http://www.indeed.com/rc/clk?jk=cd2acd0384be5ed4'
p29
aS'http://www.indeed.com/rc/clk?jk=c5435695fb6ca646'
p30
aS'http://www.indeed.com/rc/clk?jk=631fc222cb00615c'
p31
aS'http://www.indeed.com/rc/clk?jk=1801fcc39f86495e'
p32
aS'http://www.indeed.com/rc/clk?jk=262964e7884b1225'
p33
aS'http://www.indeed.com/rc/clk?jk=382bfee9aa2e5529'
p34
aS'http://www.indeed.com/rc/clk?jk=81bb9f02ea29aca1'
p35
aS'http://www.indeed.com/rc/clk?jk=1c059b6fef1e75dc'
p36
aS'http://www.indeed.com/rc/clk?jk=22951799214a9a9c'
p37
aS'http://www.indeed.com/rc/clk?jk=e1178e43fdc7fd70'
p38
aS'http://www.indeed.com/rc/clk?jk=1e64259c36fc70dc'
p39
aS'http://www.indeed.com/rc/clk?jk=e9f7de85c7ea33c4'
p40
aS'http://www.indeed.com/rc/clk?jk=c954b0ea6a7153ad'
p41
aS'http://www.indeed.com/rc/clk?jk=445dae9448418bf3'
p42
aS'http://www.indeed.com/rc/clk?jk=59265db29b729001'
p43
aS'http://www.indeed.com/rc/clk?jk=f157a4d3198b0a12'
p44
aS'http://www.indeed.com/rc/clk?jk=3d252e99eb566e3c'
p45
aS'http://www.indeed.com/rc/clk?jk=38cb42176170f988'
p46
aS'http://www.indeed.com/rc/clk?jk=60068a70c53b5376'
p47
aS'http://www.indeed.com/rc/clk?jk=41d7bce67d2190b8'
p48
aS'http://www.indeed.com/rc/clk?jk=f6caca60538370b3'
p49
aS'http://www.indeed.com/rc/clk?jk=be41c498036adf42'
p50
aS'http://www.indeed.com/rc/clk?jk=8e4ccfd6f2d344d9'
p51
aS'http://www.indeed.com/rc/clk?jk=ced80c559ffa951b'
p52
aS'http://www.indeed.com/rc/clk?jk=9022ae183e85f6ec'
p53
aS'http://www.indeed.com/rc/clk?jk=8aa4baebedab095a'
p54
aS'http://www.indeed.com/rc/clk?jk=2ac7379945a0df1f'
p55
aS'http://www.indeed.com/rc/clk?jk=00061dc4cffe1fc2'
p56
aS'http://www.indeed.com/rc/clk?jk=6c7d9280a8b4d64d'
p57
aS'http://www.indeed.com/rc/clk?jk=2a3e8718359c7dd1'
p58
aS'http://www.indeed.com/rc/clk?jk=9f9ead881bc5e3f2'
p59
aS'http://www.indeed.com/rc/clk?jk=d1ad7d1f2b31016c'
p60
aS'http://www.indeed.com/rc/clk?jk=92d32d6b4a49a275'
p61
aS'http://www.indeed.com/rc/clk?jk=60a4d9de1067bf35'
p62
aS'http://www.indeed.com/rc/clk?jk=40a63d3399f0ca91'
p63
aS'http://www.indeed.com/rc/clk?jk=7ecdb3af87c54dd9'
p64
aS'http://www.indeed.com/rc/clk?jk=c53ef45c654b8d2b'
p65
aS'http://www.indeed.com/rc/clk?jk=109fe954a1ff674a'
p66
aS'http://www.indeed.com/rc/clk?jk=029f7a5059e93bc0'
p67
aS'http://www.indeed.com/rc/clk?jk=9d6898a1e25ef51f'
p68
aS'http://www.indeed.com/rc/clk?jk=624aec9a5fd765d9'
p69
aS'http://www.indeed.com/rc/clk?jk=f2852f54357db601'
p70
aS'http://www.indeed.com/rc/clk?jk=ad7770c68cf81b6d'
p71
aS'http://www.indeed.com/rc/clk?jk=b63fb98a25538e4e'
p72
aS'http://www.indeed.com/rc/clk?jk=85765791315012f3'
p73
aS'http://www.indeed.com/rc/clk?jk=89afb9956e79edd6'
p74
aS'http://www.indeed.com/rc/clk?jk=055771ef501ecbfc'
p75
aS'http://www.indeed.com/rc/clk?jk=e0e23a07051af62a'
p76
aS'http://www.indeed.com/rc/clk?jk=4c403f753246715d'
p77
aS'http://www.indeed.com/rc/clk?jk=224ad9e99cb5b8d3'
p78
aS'http://www.indeed.com/rc/clk?jk=f4bf7cf610662641'
p79
aS'http://www.indeed.com/rc/clk?jk=535024e46834c34a'
p80
aS'http://www.indeed.com/rc/clk?jk=1aafce88e281b203'
p81
aS'http://www.indeed.com/rc/clk?jk=411bf20690dec640'
p82
aS'http://www.indeed.com/rc/clk?jk=e19822491cce9dea'
p83
aS'http://www.indeed.com/rc/clk?jk=d00bb844bee8a504'
p84
aS'http://www.indeed.com/rc/clk?jk=7e2e223ea0c8d360'
p85
aS'http://www.indeed.com/rc/clk?jk=bd6f8a37815d52ff'
p86
aS'http://www.indeed.com/rc/clk?jk=9b7ef116db5405f8'
p87
aS'http://www.indeed.com/rc/clk?jk=199c6036416faef5'
p88
aS'http://www.indeed.com/rc/clk?jk=272a63136ff6f0e3'
p89
aS'http://www.indeed.com/rc/clk?jk=7e00482619a1380c'
p90
aS'http://www.indeed.com/rc/clk?jk=87760b984db75877'
p91
aS'http://www.indeed.com/rc/clk?jk=3bef3ee226f41804'
p92
aS'http://www.indeed.com/rc/clk?jk=c47cd59081f21cab'
p93
aS'http://www.indeed.com/rc/clk?jk=8259d62670c7473b'
p94
aS'http://www.indeed.com/rc/clk?jk=2f0dbb242e597587'
p95
aS'http://www.indeed.com/rc/clk?jk=5cdbb1c5dbc90ebd'
p96
aS'http://www.indeed.com/rc/clk?jk=db9318083af04b7c'
p97
aS'http://www.indeed.com/rc/clk?jk=c922b0101790963d'
p98
aS'http://www.indeed.com/rc/clk?jk=a670b4b1661520c7'
p99
aS'http://www.indeed.com/rc/clk?jk=44f40ca45f4d4379'
p100
aS'http://www.indeed.com/rc/clk?jk=e29d7d16be5c494f'
p101
aS'http://www.indeed.com/rc/clk?jk=2b00cc85d05ce8cf'
p102
aS'http://www.indeed.com/rc/clk?jk=ffe5042654f6fe36'
p103
aS'http://www.indeed.com/rc/clk?jk=4adc620a03f33939'
p104
aS'http://www.indeed.com/rc/clk?jk=57906a3c9dd6766d'
p105
aS'http://www.indeed.com/rc/clk?jk=2f27bd9a551eea3a'
p106
aS'http://www.indeed.com/rc/clk?jk=d800ae8effca472b'
p107
aS'http://www.indeed.com/rc/clk?jk=f2f66f2f2e27083e'
p108
aS'http://www.indeed.com/rc/clk?jk=ab050150815ad278'
p109
aS'http://www.indeed.com/rc/clk?jk=0c5bc09937b87c8b'
p110
aS'http://www.indeed.com/rc/clk?jk=83f004f716be351e'
p111
aS'http://www.indeed.com/rc/clk?jk=2f8961aff0d6df0e'
p112
aS'http://www.indeed.com/rc/clk?jk=68f638aa9e90ad6e'
p113
aS'http://www.indeed.com/rc/clk?jk=d69b0a33a7028b77'
p114
aS'http://www.indeed.com/rc/clk?jk=502532713b06ef67'
p115
aS'http://www.indeed.com/rc/clk?jk=c735874c499b1ab8'
p116
aS'http://www.indeed.com/rc/clk?jk=37e5cbc43b5d080f'
p117
aS'http://www.indeed.com/rc/clk?jk=b3140a7e59f6e291'
p118
aS'http://www.indeed.com/rc/clk?jk=23fb22e5f9d0de15'
p119
aS'http://www.indeed.com/rc/clk?jk=6c4f2dbd61fb2c43'
p120
aS'http://www.indeed.com/rc/clk?jk=d0c140dd1d1aff03'
p121
aS'http://www.indeed.com/rc/clk?jk=79783897d54c10f8'
p122
aS'http://www.indeed.com/rc/clk?jk=5bf074949797aba2'
p123
aS'http://www.indeed.com/rc/clk?jk=00581db831e03761'
p124
aS'http://www.indeed.com/rc/clk?jk=f215b1ed4a997df2'
p125
aS'http://www.indeed.com/rc/clk?jk=9244fa98d4d6c808'
p126
aS'http://www.indeed.com/rc/clk?jk=40e598a160fa1109'
p127
aS'http://www.indeed.com/rc/clk?jk=40e598a160fa1109'
p128
aS'http://www.indeed.com/rc/clk?jk=9d1b4e6285e343c7'
p129
aS'http://www.indeed.com/rc/clk?jk=796fcf209bd75b53'
p130
aS'http://www.indeed.com/rc/clk?jk=9862996e1a1615ab'
p131
aS'http://www.indeed.com/rc/clk?jk=a69fae6a0ce2ef6e'
p132
aS'http://www.indeed.com/rc/clk?jk=8a55e73cbfbe9d82'
p133
aS'http://www.indeed.com/rc/clk?jk=7a548cf5f1f51daf'
p134
aS'http://www.indeed.com/rc/clk?jk=731a36e8f9304584'
p135
aS'http://www.indeed.com/rc/clk?jk=e652dae1ae1bc2a8'
p136
aS'http://www.indeed.com/rc/clk?jk=ef8d0fc5ba583b91'
p137
aS'http://www.indeed.com/rc/clk?jk=05eb58de64d8ec97'
p138
aS'http://www.indeed.com/rc/clk?jk=2e49ec1740461c78'
p139
aS'http://www.indeed.com/rc/clk?jk=68d86338b46da04b'
p140
aS'http://www.indeed.com/rc/clk?jk=ca411d79ea2ca7ae'
p141
aS'http://www.indeed.com/rc/clk?jk=90844aa3dc23a306'
p142
aS'http://www.indeed.com/rc/clk?jk=2a0d72a0d13c2482'
p143
aS'http://www.indeed.com/rc/clk?jk=2de300601edd620f'
p144
aS'http://www.indeed.com/rc/clk?jk=d86b63db57fa3301'
p145
aS'http://www.indeed.com/rc/clk?jk=8f7253aa84999ea3'
p146
aS'http://www.indeed.com/rc/clk?jk=a4242e8fc52dd4ef'
p147
aS'http://www.indeed.com/rc/clk?jk=8a53639f8af2e932'
p148
aS'http://www.indeed.com/rc/clk?jk=a5b3fa18800cb23b'
p149
aS'http://www.indeed.com/rc/clk?jk=5f3a195f3b6471f5'
p150
aS'http://www.indeed.com/rc/clk?jk=0f95628f9cc53add'
p151
aS'http://www.indeed.com/rc/clk?jk=931848d84d7cf8ff'
p152
aS'http://www.indeed.com/rc/clk?jk=fa7d330a8181fb05'
p153
aS'http://www.indeed.com/rc/clk?jk=708295a2bc9cc338'
p154
aS'http://www.indeed.com/rc/clk?jk=708295a2bc9cc338'
p155
aS'http://www.indeed.com/rc/clk?jk=f25dad02671328f4'
p156
aS'http://www.indeed.com/rc/clk?jk=a89df109ec913a0e'
p157
aS'http://www.indeed.com/rc/clk?jk=dd4267d0cda78c8f'
p158
aS'http://www.indeed.com/rc/clk?jk=ddecad6223307467'
p159
aS'http://www.indeed.com/rc/clk?jk=da4deee753c3896f'
p160
aS'http://www.indeed.com/rc/clk?jk=7128e6e2ea4bfc89'
p161
aS'http://www.indeed.com/rc/clk?jk=ab52ccc0788067dd'
p162
aS'http://www.indeed.com/rc/clk?jk=998a373fd2b0d14a'
p163
aS'http://www.indeed.com/rc/clk?jk=f3d40a43af69ecd4'
p164
aS'http://www.indeed.com/rc/clk?jk=6ebf9fe48d532173'
p165
aS'http://www.indeed.com/rc/clk?jk=bd5ec56b43e9d81d'
p166
aS'http://www.indeed.com/rc/clk?jk=b708d48071667f62'
p167
aS'http://www.indeed.com/rc/clk?jk=1b02ca43a0eadc99'
p168
aS'http://www.indeed.com/rc/clk?jk=0cbe6ae2fedf602a'
p169
aS'http://www.indeed.com/rc/clk?jk=0915e01459115a66'
p170
aS'http://www.indeed.com/rc/clk?jk=c4d537cc8c6e443d'
p171
aS'http://www.indeed.com/rc/clk?jk=67fd24eee43a8b41'
p172
aS'http://www.indeed.com/rc/clk?jk=31ba4bcf9552459d'
p173
aS'http://www.indeed.com/rc/clk?jk=3fa9267bbb5ac1ba'
p174
aS'http://www.indeed.com/rc/clk?jk=af35e7c6104d26a6'
p175
aS'http://www.indeed.com/rc/clk?jk=74f2bf7f8115f245'
p176
aS'http://www.indeed.com/rc/clk?jk=3553994583b8c05e'
p177
aS'http://www.indeed.com/rc/clk?jk=5dfc6f3f2bc10d17'
p178
aS'http://www.indeed.com/rc/clk?jk=ad9617f3c0d307d5'
p179
aS'http://www.indeed.com/rc/clk?jk=8718e94b0489a618'
p180
aS'http://www.indeed.com/rc/clk?jk=5773d8bc06310743'
p181
a.